target datalayout = "e-m:e-p270:32:32-p271:32:32-p272:64:64-i64:64-i128:128-f80:128-n8:16:32:64-S128"
target triple = "x86_64-pc-linux-gnu"

%struct.node_info_msg = type { i64, i32, ptr }
%struct.node_info = type { ptr, ptr, i16, i64, ptr, i16, i16, i32, i32, i64, i16, i16, ptr, ptr, ptr, ptr, ptr, ptr, ptr, ptr, ptr, ptr, i64, ptr, i64, ptr, i32, ptr, ptr, i32, ptr, i32, ptr, i16, i64, i16, ptr, ptr, ptr, i64, i32, i64, ptr, ptr, i64, i16, i16, i32, i32, ptr, ptr }

@quiet_flag = external global i32, align 4
@scontrol_print_node.last_inx = internal global i32 0, align 4
@stdout = external global ptr, align 8
@one_liner = external global i32, align 4
@exit_code = external global i32, align 4
@.str.4 = private unnamed_addr constant [19 x i8] c"Node %s not found\0A\00", align 1
@.str.5 = private unnamed_addr constant [24 x i8] c"No nodes in the system\0A\00", align 1

; Function Attrs: nounwind uwtable
define dso_local void @scontrol_print_node(ptr noundef %0, ptr noundef %1) #0 {
  %3 = alloca ptr, align 8
  %4 = alloca ptr, align 8
  %5 = alloca i32, align 4
  %6 = alloca i32, align 4
  %7 = alloca i32, align 4
  store ptr %0, ptr %3, align 8
  store ptr %1, ptr %4, align 8
  call void @llvm.lifetime.start.p0(i64 4, ptr %5) #7
  call void @llvm.lifetime.start.p0(i64 4, ptr %6) #7
  call void @llvm.lifetime.start.p0(i64 4, ptr %7) #7
  store i32 0, ptr %7, align 4
  store i32 0, ptr %6, align 4
  br label %8

8:                                                ; preds = %78, %2
  %9 = load i32, ptr %6, align 4
  %10 = load ptr, ptr %4, align 8
  %11 = getelementptr inbounds nuw %struct.node_info_msg, ptr %10, i32 0, i32 1
  %12 = load i32, ptr %11, align 8
  %13 = icmp ult i32 %9, %12
  br i1 %13, label %14, label %81

14:                                               ; preds = %8
  %15 = load ptr, ptr %3, align 8
  %16 = icmp ne ptr %15, null
  br i1 %16, label %17, label %48

17:                                               ; preds = %14
  %18 = load i32, ptr %6, align 4
  %19 = load i32, ptr @scontrol_print_node.last_inx, align 4
  %20 = add nsw i32 %18, %19
  %21 = load ptr, ptr %4, align 8
  %22 = getelementptr inbounds nuw %struct.node_info_msg, ptr %21, i32 0, i32 1
  %23 = load i32, ptr %22, align 8
  %24 = urem i32 %20, %23
  store i32 %24, ptr %5, align 4
  %25 = load ptr, ptr %4, align 8
  %26 = getelementptr inbounds nuw %struct.node_info_msg, ptr %25, i32 0, i32 2
  %27 = load ptr, ptr %26, align 8
  %28 = load i32, ptr %5, align 4
  %29 = sext i32 %28 to i64
  %30 = getelementptr inbounds %struct.node_info, ptr %27, i64 %29
  %31 = getelementptr inbounds nuw %struct.node_info, ptr %30, i32 0, i32 25
  %32 = load ptr, ptr %31, align 8
  %33 = icmp eq ptr %32, null
  br i1 %33, label %46, label %34

34:                                               ; preds = %17
  %35 = load ptr, ptr %3, align 8
  %36 = load ptr, ptr %4, align 8
  %37 = getelementptr inbounds nuw %struct.node_info_msg, ptr %36, i32 0, i32 2
  %38 = load ptr, ptr %37, align 8
  %39 = load i32, ptr %5, align 4
  %40 = sext i32 %39 to i64
  %41 = getelementptr inbounds %struct.node_info, ptr %38, i64 %40
  %42 = getelementptr inbounds nuw %struct.node_info, ptr %41, i32 0, i32 25
  %43 = load ptr, ptr %42, align 8
  %44 = call i32 @xstrcmp(ptr noundef %35, ptr noundef %43)
  %45 = icmp ne i32 %44, 0
  br i1 %45, label %46, label %47

46:                                               ; preds = %34, %17
  br label %78

47:                                               ; preds = %34
  br label %62

48:                                               ; preds = %14
  %49 = load ptr, ptr %4, align 8
  %50 = getelementptr inbounds nuw %struct.node_info_msg, ptr %49, i32 0, i32 2
  %51 = load ptr, ptr %50, align 8
  %52 = load i32, ptr %6, align 4
  %53 = sext i32 %52 to i64
  %54 = getelementptr inbounds %struct.node_info, ptr %51, i64 %53
  %55 = getelementptr inbounds nuw %struct.node_info, ptr %54, i32 0, i32 25
  %56 = load ptr, ptr %55, align 8
  %57 = icmp eq ptr %56, null
  br i1 %57, label %58, label %59

58:                                               ; preds = %48
  br label %78

59:                                               ; preds = %48
  %60 = load i32, ptr %6, align 4
  store i32 %60, ptr %5, align 4
  br label %61

61:                                               ; preds = %59
  br label %62

62:                                               ; preds = %61, %47
  %63 = load i32, ptr %7, align 4
  %64 = add nsw i32 %63, 1
  store i32 %64, ptr %7, align 4
  %65 = load ptr, ptr @stdout, align 8
  %66 = load ptr, ptr %4, align 8
  %67 = getelementptr inbounds nuw %struct.node_info_msg, ptr %66, i32 0, i32 2
  %68 = load ptr, ptr %67, align 8
  %69 = load i32, ptr %5, align 4
  %70 = sext i32 %69 to i64
  %71 = getelementptr inbounds %struct.node_info, ptr %68, i64 %70
  %72 = load i32, ptr @one_liner, align 4
  call void @slurm_print_node_table(ptr noundef %65, ptr noundef %71, i32 noundef %72)
  %73 = load ptr, ptr %3, align 8
  %74 = icmp ne ptr %73, null
  br i1 %74, label %75, label %77

75:                                               ; preds = %62
  %76 = load i32, ptr %5, align 4
  store i32 %76, ptr @scontrol_print_node.last_inx, align 4
  br label %81

77:                                               ; preds = %62
  br label %78

78:                                               ; preds = %77, %58, %46
  %79 = load i32, ptr %6, align 4
  %80 = add nsw i32 %79, 1
  store i32 %80, ptr %6, align 4
  br label %8, !llvm.loop !11

81:                                               ; preds = %75, %8
  %82 = load i32, ptr %7, align 4
  %83 = icmp eq i32 %82, 0
  br i1 %83, label %84, label %101

84:                                               ; preds = %81
  %85 = load ptr, ptr %3, align 8
  %86 = icmp ne ptr %85, null
  br i1 %86, label %87, label %94

87:                                               ; preds = %84
  store i32 1, ptr @exit_code, align 4
  %88 = load i32, ptr @quiet_flag, align 4
  %89 = icmp ne i32 %88, 1
  br i1 %89, label %90, label %93

90:                                               ; preds = %87
  %91 = load ptr, ptr %3, align 8
  %92 = call i32 (ptr, ...) @printf(ptr noundef @.str.4, ptr noundef %91)
  br label %93

93:                                               ; preds = %90, %87
  br label %100

94:                                               ; preds = %84
  %95 = load i32, ptr @quiet_flag, align 4
  %96 = icmp ne i32 %95, 1
  br i1 %96, label %97, label %99

97:                                               ; preds = %94
  %98 = call i32 (ptr, ...) @printf(ptr noundef @.str.5)
  br label %99

99:                                               ; preds = %97, %94
  br label %100

100:                                              ; preds = %99, %93
  br label %101

101:                                              ; preds = %100, %81
  call void @llvm.lifetime.end.p0(i64 4, ptr %7) #7
  call void @llvm.lifetime.end.p0(i64 4, ptr %6) #7
  call void @llvm.lifetime.end.p0(i64 4, ptr %5) #7
  ret void
}