; Function Attrs: nounwind uwtable
define dso_local void @scontrol_print_node(ptr noundef %0, ptr noundef readonly captures(none) %1) local_unnamed_addr #0 {
  %3 = getelementptr inbounds nuw i8, ptr %1, i64 8
  %4 = load i32, ptr %3, align 8
  %.not36 = icmp eq i32 %4, 0
  br i1 %.not36, label %.loopexit.thread, label %.lr.ph

.lr.ph:                                           ; preds = %2
  %.not = icmp eq ptr %0, null
  %5 = getelementptr inbounds nuw i8, ptr %1, i64 16
  br i1 %.not, label %.lr.ph.split.us.split, label %.lr.ph.split.preheader

.lr.ph.split.preheader:                           ; preds = %.lr.ph
  %.pre40 = load i32, ptr @scontrol_print_node.last_inx, align 4
  br label %.lr.ph.split

.lr.ph.split.us.split:                            ; preds = %.lr.ph, %16
  %6 = phi i32 [ %17, %16 ], [ %4, %.lr.ph ]
  %indvars.iv = phi i64 [ %indvars.iv.next, %16 ], [ 0, %.lr.ph ]
  %.033.us = phi i32 [ %.2.us, %16 ], [ 0, %.lr.ph ]
  %7 = load ptr, ptr %5, align 8
  %8 = getelementptr inbounds nuw %struct.node_info, ptr %7, i64 %indvars.iv, i32 25
  %9 = load ptr, ptr %8, align 8
  %10 = icmp eq ptr %9, null
  br i1 %10, label %16, label %11

11:                                               ; preds = %.lr.ph.split.us.split
  %12 = add nsw i32 %.033.us, 1
  %13 = load ptr, ptr @stdout, align 8
  %14 = getelementptr inbounds nuw %struct.node_info, ptr %7, i64 %indvars.iv
  %15 = load i32, ptr @one_liner, align 4
  tail call void @slurm_print_node_table(ptr noundef %13, ptr noundef %14, i32 noundef %15) #9
  %.pre42 = load i32, ptr %3, align 8
  br label %16

16:                                               ; preds = %11, %.lr.ph.split.us.split
  %17 = phi i32 [ %.pre42, %11 ], [ %6, %.lr.ph.split.us.split ]
  %.2.us = phi i32 [ %12, %11 ], [ %.033.us, %.lr.ph.split.us.split ]
  %indvars.iv.next = add nuw nsw i64 %indvars.iv, 1
  %18 = zext i32 %17 to i64
  %19 = icmp samesign ult i64 %indvars.iv.next, %18
  br i1 %19, label %.lr.ph.split.us.split, label %.loopexit, !llvm.loop !11

.lr.ph.split:                                     ; preds = %.lr.ph.split.preheader, %35
  %20 = phi i32 [ %36, %35 ], [ %4, %.lr.ph.split.preheader ]
  %21 = phi i32 [ %37, %35 ], [ %.pre40, %.lr.ph.split.preheader ]
  %.02132 = phi i32 [ %38, %35 ], [ 0, %.lr.ph.split.preheader ]
  %22 = add nsw i32 %21, %.02132
  %23 = urem i32 %22, %20
  %24 = load ptr, ptr %5, align 8
  %25 = sext i32 %23 to i64
  %26 = getelementptr inbounds %struct.node_info, ptr %24, i64 %25, i32 25
  %27 = load ptr, ptr %26, align 8
  %28 = icmp eq ptr %27, null
  br i1 %28, label %35, label %29

29:                                               ; preds = %.lr.ph.split
  %30 = tail call i32 @xstrcmp(ptr noundef nonnull %0, ptr noundef nonnull %27) #9
  %.not27 = icmp eq i32 %30, 0
  br i1 %.not27, label %.loopexit.thread44, label %._crit_edge

._crit_edge:                                      ; preds = %29
  %.pre = load i32, ptr @scontrol_print_node.last_inx, align 4
  %.pre41 = load i32, ptr %3, align 8
  br label %35

.loopexit.thread44:                               ; preds = %29
  %31 = load ptr, ptr @stdout, align 8
  %32 = load ptr, ptr %5, align 8
  %33 = getelementptr inbounds %struct.node_info, ptr %32, i64 %25
  %34 = load i32, ptr @one_liner, align 4
  tail call void @slurm_print_node_table(ptr noundef %31, ptr noundef %33, i32 noundef %34) #9
  store i32 %23, ptr @scontrol_print_node.last_inx, align 4
  br label %48

35:                                               ; preds = %._crit_edge, %.lr.ph.split
  %36 = phi i32 [ %20, %.lr.ph.split ], [ %.pre41, %._crit_edge ]
  %37 = phi i32 [ %21, %.lr.ph.split ], [ %.pre, %._crit_edge ]
  %38 = add nuw nsw i32 %.02132, 1
  %39 = icmp ult i32 %38, %36
  br i1 %39, label %.lr.ph.split, label %.loopexit.thread, !llvm.loop !11

.loopexit:                                        ; preds = %16
  %40 = icmp eq i32 %.2.us, 0
  br i1 %40, label %.loopexit.thread, label %48

.loopexit.thread:                                 ; preds = %35, %2, %.loopexit
  %.not28 = icmp eq ptr %0, null
  br i1 %.not28, label %45, label %41

41:                                               ; preds = %.loopexit.thread
  store i32 1, ptr @exit_code, align 4
  %42 = load i32, ptr @quiet_flag, align 4
  %.not30 = icmp eq i32 %42, 1
  br i1 %.not30, label %48, label %43

43:                                               ; preds = %41
  %44 = tail call i32 (ptr, ...) @printf(ptr noundef nonnull dereferenceable(1) @.str.4, ptr noundef nonnull %0)
  br label %48

45:                                               ; preds = %.loopexit.thread
  %46 = load i32, ptr @quiet_flag, align 4
  %.not29 = icmp eq i32 %46, 1
  br i1 %.not29, label %48, label %47

47:                                               ; preds = %45
  %puts = tail call i32 @puts(ptr nonnull dereferenceable(1) @str.3)
  br label %48

48:                                               ; preds = %.loopexit.thread44, %43, %41, %47, %45, %.loopexit
  ret void
}